; Function Attrs: nounwind uwtable
define internal fastcc i64 @cts128_cs2_encrypt(ptr noundef %0, ptr noundef %1, ptr noundef nonnull %2, i64 noundef range(i64 16, 0) %3) unnamed_addr #2 {
  %5 = alloca %union.aligned_16bytes, align 8
  %6 = and i64 %3, 15
  %7 = icmp eq i64 %6, 0
  br i1 %7, label %8, label %14

8:                                                ; preds = %4
  %9 = getelementptr inbounds nuw i8, ptr %0, i64 168
  %10 = load ptr, ptr %9, align 8, !tbaa !20
  %11 = getelementptr inbounds nuw i8, ptr %10, i64 8
  %12 = load ptr, ptr %11, align 8, !tbaa !21
  %13 = tail call i32 %12(ptr noundef %0, ptr noundef nonnull %2, ptr noundef %1, i64 noundef %3) #7
  %.not = icmp eq i32 %13, 0
  %. = select i1 %.not, i64 0, i64 %3
  br label %40

14:                                               ; preds = %4
  call void @llvm.lifetime.start.p0(i64 16, ptr nonnull %5) #7
  %15 = icmp eq i64 %3, 16
  br i1 %15, label %16, label %23

16:                                               ; preds = %14
  %17 = getelementptr inbounds nuw i8, ptr %0, i64 168
  %18 = load ptr, ptr %17, align 8, !tbaa !20
  %19 = getelementptr inbounds nuw i8, ptr %18, i64 8
  %20 = load ptr, ptr %19, align 8, !tbaa !21
  %21 = tail call i32 %20(ptr noundef %0, ptr noundef nonnull %2, ptr noundef %1, i64 noundef 16) #7
  %.not33.i = icmp eq i32 %21, 0
  %22 = select i1 %.not33.i, i64 0, i64 16
  br label %cts128_cs3_encrypt.exit

23:                                               ; preds = %14
  %24 = and i64 %3, -16
  %25 = getelementptr inbounds nuw i8, ptr %0, i64 168
  %26 = load ptr, ptr %25, align 8, !tbaa !20
  %27 = getelementptr inbounds nuw i8, ptr %26, i64 8
  %28 = load ptr, ptr %27, align 8, !tbaa !21
  %29 = tail call i32 %28(ptr noundef %0, ptr noundef nonnull %2, ptr noundef %1, i64 noundef %24) #7
  %.not.i = icmp eq i32 %29, 0
  br i1 %.not.i, label %cts128_cs3_encrypt.exit, label %30

30:                                               ; preds = %23
  %31 = getelementptr inbounds nuw i8, ptr %1, i64 %24
  %32 = getelementptr inbounds nuw i8, ptr %2, i64 %24
  %33 = sub nuw nsw i64 16, %6
  %34 = getelementptr i8, ptr %5, i64 %6
  call void @llvm.memset.p0.i64(ptr noundef nonnull align 1 dereferenceable(1) %34, i8 0, i64 %33, i1 false)
  call void @llvm.memcpy.p0.p0.i64(ptr noundef nonnull align 8 dereferenceable(1) %5, ptr noundef nonnull align 1 dereferenceable(1) %31, i64 %6, i1 false)
  %35 = getelementptr inbounds i8, ptr %32, i64 -16
  tail call void @llvm.memcpy.p0.p0.i64(ptr noundef nonnull align 1 dereferenceable(1) %32, ptr noundef nonnull align 1 dereferenceable(1) %35, i64 %6, i1 false)
  %36 = load ptr, ptr %25, align 8, !tbaa !20
  %37 = getelementptr inbounds nuw i8, ptr %36, i64 8
  %38 = load ptr, ptr %37, align 8, !tbaa !21
  %39 = call i32 %38(ptr noundef nonnull %0, ptr noundef nonnull %35, ptr noundef nonnull %5, i64 noundef 16) #7
  %.not32.i = icmp eq i32 %39, 0
  %..i = select i1 %.not32.i, i64 0, i64 %3
  br label %cts128_cs3_encrypt.exit

cts128_cs3_encrypt.exit:                          ; preds = %16, %23, %30
  %.0.i = phi i64 [ %22, %16 ], [ 0, %23 ], [ %..i, %30 ]
  call void @llvm.lifetime.end.p0(i64 16, ptr nonnull %5) #7
  br label %40

40:                                               ; preds = %8, %cts128_cs3_encrypt.exit
  %.0 = phi i64 [ %.0.i, %cts128_cs3_encrypt.exit ], [ %., %8 ]
  ret i64 %.0
}